; Function Attrs: mustprogress uwtable
define void @_ZNK2cv4UMat3mulERKNS_11_InputArrayEd(ptr dead_on_unwind noalias nonnull writable sret(%"class.cv::UMat") align 8 %0, ptr noundef nonnull align 8 dereferenceable(80) %1, ptr noundef nonnull align 8 dereferenceable(24) %2, double noundef %3) local_unnamed_addr #0 align 2 personality ptr @__gxx_personality_v0 {
  %5 = alloca %"class.cv::_InputArray", align 8
  %6 = alloca %"class.cv::_OutputArray", align 8
  tail call void @_ZN2cv4UMatC1ENS_14UMatUsageFlagsE(ptr noundef nonnull align 8 dereferenceable(80) %0, i32 noundef 0) #18
  %7 = getelementptr inbounds i8, ptr %5, i64 16
  store i32 0, ptr %7, align 8
  %8 = getelementptr inbounds i8, ptr %5, i64 20
  store i32 0, ptr %8, align 4
  store i32 17432576, ptr %5, align 8
  %9 = getelementptr inbounds i8, ptr %5, i64 8
  store ptr %1, ptr %9, align 8
  %10 = getelementptr inbounds i8, ptr %6, i64 8
  %11 = getelementptr inbounds i8, ptr %6, i64 16
  store i64 0, ptr %11, align 8
  store i32 34209792, ptr %6, align 8
  store ptr %0, ptr %10, align 8
  invoke void @_ZN2cv8multiplyERKNS_11_InputArrayES2_RKNS_12_OutputArrayEdi(ptr noundef nonnull align 8 dereferenceable(24) %5, ptr noundef nonnull align 8 dereferenceable(24) %2, ptr noundef nonnull align 8 dereferenceable(24) %6, double noundef %3, i32 noundef -1)
          to label %12 unwind label %13

12:                                               ; preds = %4
  ret void

13:                                               ; preds = %4
  %14 = landingpad { ptr, i32 }
          cleanup
  call void @_ZN2cv4UMatD1Ev(ptr noundef nonnull align 8 dereferenceable(80) %0) #18
  resume { ptr, i32 } %14
}